target datalayout = "e-m:e-p270:32:32-p271:32:32-p272:64:64-i64:64-i128:128-f80:128-n8:16:32:64-S128"
target triple = "x86_64-pc-linux-gnu"

%"class.icu_77::MaybeStackArray" = type <{ ptr, i32, i8, [40 x i8], [3 x i8] }>
%"class.icu_77::CharString" = type { %"class.icu_77::MaybeStackArray", i32, [4 x i8] }

@_ZN6icu_77L12gPluralFormsE = internal constant [6 x ptr] [ptr @.str, ptr @.str.1, ptr @.str.2, ptr @.str.3, ptr @.str.4, ptr @.str.5], align 16
@_ZN6icu_7715MaybeStackArrayIcLi40EEC1Ev = weak_odr unnamed_addr alias void (ptr), ptr @_ZN6icu_7715MaybeStackArrayIcLi40EEC2Ev
@_ZN6icu_7715MaybeStackArrayIcLi40EED1Ev = weak_odr unnamed_addr alias void (ptr), ptr @_ZN6icu_7715MaybeStackArrayIcLi40EED2Ev

; Function Attrs: mustprogress nounwind uwtable
define weak_odr noundef ptr @_ZNK6icu_7715MaybeStackArrayIcLi40EE8getAliasEv(ptr noundef nonnull align 8 dereferenceable(53) %0) #0 comdat align 2 {
  %2 = alloca ptr, align 8
  store ptr %0, ptr %2, align 8, !tbaa !3
  %3 = load ptr, ptr %2, align 8
  %4 = getelementptr inbounds nuw %"class.icu_77::MaybeStackArray", ptr %3, i32 0, i32 0
  %5 = load ptr, ptr %4, align 8, !tbaa !8
  ret ptr %5
}

; Function Attrs: mustprogress nounwind uwtable
define weak_odr noundef nonnull align 1 dereferenceable(1) ptr @_ZN6icu_7715MaybeStackArrayIcLi40EEixEl(ptr noundef nonnull align 8 dereferenceable(53) %0, i64 noundef %1) #0 comdat align 2 {
  %3 = alloca ptr, align 8
  %4 = alloca i64, align 8
  store ptr %0, ptr %3, align 8, !tbaa !3
  store i64 %1, ptr %4, align 8, !tbaa !18
  %5 = load ptr, ptr %3, align 8
  %6 = getelementptr inbounds nuw %"class.icu_77::MaybeStackArray", ptr %5, i32 0, i32 0
  %7 = load ptr, ptr %6, align 8, !tbaa !8
  %8 = load i64, ptr %4, align 8, !tbaa !18
  %9 = getelementptr inbounds i8, ptr %7, i64 %8
  ret ptr %9
}

; Function Attrs: mustprogress nounwind uwtable
define linkonce_odr void @_ZN6icu_7710CharStringD2Ev(ptr noundef nonnull align 8 dereferenceable(60) %0) unnamed_addr #0 comdat align 2 {
  %2 = alloca ptr, align 8
  store ptr %0, ptr %2, align 8, !tbaa !27
  %3 = load ptr, ptr %2, align 8
  %4 = getelementptr inbounds nuw %"class.icu_77::CharString", ptr %3, i32 0, i32 0
  call void @_ZN6icu_7715MaybeStackArrayIcLi40EED1Ev(ptr noundef nonnull align 8 dereferenceable(53) %4) #10
  ret void
}

; Function Attrs: mustprogress nounwind uwtable
define noundef i32 @_ZN6icu_7713PluralMapBase10toCategoryEPKc(ptr noundef %0) #0 align 2 {
  %2 = alloca i32, align 4
  %3 = alloca ptr, align 8
  %4 = alloca i32, align 4
  %5 = alloca i32, align 4
  store ptr %0, ptr %3, align 8, !tbaa !17
  call void @llvm.lifetime.start.p0(i64 4, ptr %4) #10
  store i32 0, ptr %4, align 4, !tbaa !14
  br label %6

6:                                                ; preds = %21, %1
  %7 = load i32, ptr %4, align 4, !tbaa !14
  %8 = icmp slt i32 %7, 6
  br i1 %8, label %10, label %9

9:                                                ; preds = %6
  store i32 2, ptr %5, align 4
  br label %24

10:                                               ; preds = %6
  %11 = load ptr, ptr %3, align 8, !tbaa !17
  %12 = load i32, ptr %4, align 4, !tbaa !14
  %13 = sext i32 %12 to i64
  %14 = getelementptr inbounds [6 x ptr], ptr @_ZN6icu_77L12gPluralFormsE, i64 0, i64 %13
  %15 = load ptr, ptr %14, align 8, !tbaa !17
  %16 = call i32 @strcmp(ptr noundef %11, ptr noundef %15) #13
  %17 = icmp eq i32 %16, 0
  br i1 %17, label %18, label %20

18:                                               ; preds = %10
  %19 = load i32, ptr %4, align 4, !tbaa !14
  store i32 %19, ptr %2, align 4
  store i32 1, ptr %5, align 4
  br label %24

20:                                               ; preds = %10
  br label %21

21:                                               ; preds = %20
  %22 = load i32, ptr %4, align 4, !tbaa !14
  %23 = add nsw i32 %22, 1
  store i32 %23, ptr %4, align 4, !tbaa !14
  br label %6, !llvm.loop !23

24:                                               ; preds = %18, %9
  call void @llvm.lifetime.end.p0(i64 4, ptr %4) #10
  %25 = load i32, ptr %5, align 4
  switch i32 %25, label %29 [
    i32 2, label %26
    i32 1, label %27
  ]

26:                                               ; preds = %24
  store i32 -1, ptr %2, align 4
  br label %27

27:                                               ; preds = %26, %24
  %28 = load i32, ptr %2, align 4
  ret i32 %28

29:                                               ; preds = %24
  unreachable
}

; Function Attrs: mustprogress nounwind uwtable
define linkonce_odr noundef ptr @_ZN6icu_7710CharString4dataEv(ptr noundef nonnull align 8 dereferenceable(60) %0) #0 comdat align 2 {
  %2 = alloca ptr, align 8
  store ptr %0, ptr %2, align 8, !tbaa !27
  %3 = load ptr, ptr %2, align 8
  %4 = getelementptr inbounds nuw %"class.icu_77::CharString", ptr %3, i32 0, i32 0
  %5 = call noundef ptr @_ZNK6icu_7715MaybeStackArrayIcLi40EE8getAliasEv(ptr noundef nonnull align 8 dereferenceable(53) %4)
  ret ptr %5
}

; Function Attrs: inlinehint mustprogress nounwind uwtable
define internal noundef signext i8 @_ZL9U_FAILURE10UErrorCode(i32 noundef %0) #2 {
  %2 = alloca i32, align 4
  store i32 %0, ptr %2, align 4, !tbaa !15
  %3 = load i32, ptr %2, align 4, !tbaa !15
  %4 = icmp sgt i32 %3, 0
  %5 = zext i1 %4 to i8
  ret i8 %5
}

; Function Attrs: mustprogress uwtable
define linkonce_odr void @_ZN6icu_7710CharStringC2Ev(ptr noundef nonnull align 8 dereferenceable(60) %0) unnamed_addr #1 comdat align 2 {
  %2 = alloca ptr, align 8
  store ptr %0, ptr %2, align 8, !tbaa !27
  %3 = load ptr, ptr %2, align 8
  %4 = getelementptr inbounds nuw %"class.icu_77::CharString", ptr %3, i32 0, i32 0
  call void @_ZN6icu_7715MaybeStackArrayIcLi40EEC1Ev(ptr noundef nonnull align 8 dereferenceable(53) %4)
  %5 = getelementptr inbounds nuw %"class.icu_77::CharString", ptr %3, i32 0, i32 1
  store i32 0, ptr %5, align 8, !tbaa !29
  %6 = getelementptr inbounds nuw %"class.icu_77::CharString", ptr %3, i32 0, i32 0
  %7 = call noundef nonnull align 1 dereferenceable(1) ptr @_ZN6icu_7715MaybeStackArrayIcLi40EEixEl(ptr noundef nonnull align 8 dereferenceable(53) %6, i64 noundef 0)
  store i8 0, ptr %7, align 1, !tbaa !31
  ret void
}

; Function Attrs: mustprogress uwtable
define noundef i32 @_ZN6icu_7713PluralMapBase10toCategoryERKNS_13UnicodeStringE(ptr noundef nonnull align 8 dereferenceable(64) %0) #1 align 2 personality ptr @__gxx_personality_v0 {
  %2 = alloca ptr, align 8
  %3 = alloca %"class.icu_77::CharString", align 8
  %4 = alloca i32, align 4
  %5 = alloca ptr, align 8
  %6 = alloca i32, align 4
  store ptr %0, ptr %2, align 8, !tbaa !25
  call void @llvm.lifetime.start.p0(i64 64, ptr %3) #10
  call void @_ZN6icu_7710CharStringC2Ev(ptr noundef nonnull align 8 dereferenceable(60) %3)
  call void @llvm.lifetime.start.p0(i64 4, ptr %4) #10
  store i32 0, ptr %4, align 4, !tbaa !15
  %7 = load ptr, ptr %2, align 8, !tbaa !25
  %8 = invoke noundef nonnull align 8 dereferenceable(60) ptr @_ZN6icu_7710CharString20appendInvariantCharsERKNS_13UnicodeStringER10UErrorCode(ptr noundef nonnull align 8 dereferenceable(60) %3, ptr noundef nonnull align 8 dereferenceable(64) %7, ptr noundef nonnull align 4 dereferenceable(4) %4)
          to label %9 unwind label %21

9:                                                ; preds = %1
  %10 = load i32, ptr %4, align 4, !tbaa !15
  %11 = invoke noundef signext i8 @_ZL9U_FAILURE10UErrorCode(i32 noundef %10)
          to label %12 unwind label %21

12:                                               ; preds = %9
  %13 = icmp ne i8 %11, 0
  br i1 %13, label %14, label %15

14:                                               ; preds = %12
  br label %19

15:                                               ; preds = %12
  %16 = invoke noundef ptr @_ZN6icu_7710CharString4dataEv(ptr noundef nonnull align 8 dereferenceable(60) %3)
          to label %17 unwind label %21

17:                                               ; preds = %15
  %18 = call noundef i32 @_ZN6icu_7713PluralMapBase10toCategoryEPKc(ptr noundef %16)
  br label %19

19:                                               ; preds = %17, %14
  %20 = phi i32 [ -1, %14 ], [ %18, %17 ]
  call void @llvm.lifetime.end.p0(i64 4, ptr %4) #10
  call void @_ZN6icu_7710CharStringD2Ev(ptr noundef nonnull align 8 dereferenceable(60) %3) #10
  call void @llvm.lifetime.end.p0(i64 64, ptr %3) #10
  ret i32 %20

21:                                               ; preds = %15, %9, %1
  %22 = landingpad { ptr, i32 }
          cleanup
  %23 = extractvalue { ptr, i32 } %22, 0
  store ptr %23, ptr %5, align 8
  %24 = extractvalue { ptr, i32 } %22, 1
  store i32 %24, ptr %6, align 4
  call void @llvm.lifetime.end.p0(i64 4, ptr %4) #10
  call void @_ZN6icu_7710CharStringD2Ev(ptr noundef nonnull align 8 dereferenceable(60) %3) #10
  call void @llvm.lifetime.end.p0(i64 64, ptr %3) #10
  br label %25

25:                                               ; preds = %21
  %26 = load ptr, ptr %5, align 8
  %27 = load i32, ptr %6, align 4
  %28 = insertvalue { ptr, i32 } poison, ptr %26, 0
  %29 = insertvalue { ptr, i32 } %28, i32 %27, 1
  resume { ptr, i32 } %29
}