; Function Attrs: mustprogress uwtable
define noundef i32 @_ZN6icu_7713PluralMapBase10toCategoryERKNS_13UnicodeStringE(ptr noundef nonnull align 8 dereferenceable(64) %0) local_unnamed_addr #1 align 2 personality ptr @__gxx_personality_v0 {
  %2 = alloca %"class.icu_77::CharString", align 8
  %3 = alloca i32, align 4
  call void @llvm.lifetime.start.p0(i64 64, ptr nonnull %2) #14
  call void @_ZN6icu_7715MaybeStackArrayIcLi40EEC1Ev(ptr noundef nonnull align 8 dereferenceable(60) %2)
  %4 = getelementptr inbounds nuw i8, ptr %2, i64 56
  store i32 0, ptr %4, align 8, !tbaa !18
  %5 = load ptr, ptr %2, align 8, !tbaa !3
  store i8 0, ptr %5, align 1, !tbaa !20
  call void @llvm.lifetime.start.p0(i64 4, ptr nonnull %3) #14
  store i32 0, ptr %3, align 4, !tbaa !13
  %6 = invoke noundef nonnull align 8 dereferenceable(60) ptr @_ZN6icu_7710CharString20appendInvariantCharsERKNS_13UnicodeStringER10UErrorCode(ptr noundef nonnull align 8 dereferenceable(60) %2, ptr noundef nonnull align 8 dereferenceable(64) %0, ptr noundef nonnull align 4 dereferenceable(4) %3)
          to label %7 unwind label %20

7:                                                ; preds = %1
  %8 = load i32, ptr %3, align 4, !tbaa !13
  %9 = icmp slt i32 %8, 1
  br i1 %9, label %10, label %_ZN6icu_7713PluralMapBase10toCategoryEPKc.exit

10:                                               ; preds = %7
  %11 = load ptr, ptr %2, align 8, !tbaa !3
  br label %12

12:                                               ; preds = %17, %10
  %indvars.iv.i = phi i64 [ 0, %10 ], [ %indvars.iv.next.i, %17 ]
  %13 = getelementptr inbounds nuw [6 x ptr], ptr @_ZN6icu_77L12gPluralFormsE, i64 0, i64 %indvars.iv.i
  %14 = load ptr, ptr %13, align 8, !tbaa !15
  %15 = call i32 @strcmp(ptr noundef nonnull readonly dereferenceable(1) %11, ptr noundef nonnull dereferenceable(1) %14) #17
  %16 = icmp eq i32 %15, 0
  br i1 %16, label %.split.loop.exit.i, label %17

17:                                               ; preds = %12
  %indvars.iv.next.i = add nuw nsw i64 %indvars.iv.i, 1
  %exitcond.i = icmp eq i64 %indvars.iv.next.i, 6
  br i1 %exitcond.i, label %_ZN6icu_7713PluralMapBase10toCategoryEPKc.exit, label %12, !llvm.loop !16

.split.loop.exit.i:                               ; preds = %12
  %18 = trunc nuw nsw i64 %indvars.iv.i to i32
  br label %_ZN6icu_7713PluralMapBase10toCategoryEPKc.exit

_ZN6icu_7713PluralMapBase10toCategoryEPKc.exit:   ; preds = %17, %.split.loop.exit.i, %7
  %19 = phi i32 [ -1, %7 ], [ %18, %.split.loop.exit.i ], [ -1, %17 ]
  call void @llvm.lifetime.end.p0(i64 4, ptr nonnull %3) #14
  call void @_ZN6icu_7715MaybeStackArrayIcLi40EED1Ev(ptr noundef nonnull align 8 dereferenceable(60) %2) #14
  call void @llvm.lifetime.end.p0(i64 64, ptr nonnull %2) #14
  ret i32 %19

20:                                               ; preds = %1
  %21 = landingpad { ptr, i32 }
          cleanup
  call void @llvm.lifetime.end.p0(i64 4, ptr nonnull %3) #14
  call void @_ZN6icu_7715MaybeStackArrayIcLi40EED1Ev(ptr noundef nonnull align 8 dereferenceable(60) %2) #14
  call void @llvm.lifetime.end.p0(i64 64, ptr nonnull %2) #14
  resume { ptr, i32 } %21
}